; Function Attrs: nounwind uwtable
define hidden void @zim_SplPriorityQueue_setExtractFlags(ptr nocapture noundef readonly %0, ptr nocapture noundef writeonly %1) #0 {
  %3 = alloca i64, align 8
  %4 = getelementptr inbounds i8, ptr %0, i64 32
  %5 = getelementptr inbounds i8, ptr %0, i64 44
  %6 = load i32, ptr %5, align 4
  %7 = call i32 (i32, ptr, ...) @zend_parse_parameters(i32 noundef %6, ptr noundef nonnull @.str.3, ptr noundef nonnull %3) #14
  %8 = icmp eq i32 %7, -1
  br i1 %8, label %9, label %12

9:                                                ; preds = %2
  %10 = load ptr, ptr getelementptr inbounds (%struct._zend_executor_globals, ptr @executor_globals, i64 0, i32 50), align 8
  %11 = icmp ne ptr %10, null
  call void @llvm.assume(i1 %11)
  br label %25

12:                                               ; preds = %2
  %13 = load i64, ptr %3, align 8
  %14 = and i64 %13, 3
  store i64 %14, ptr %3, align 8
  %.not = icmp eq i64 %14, 0
  br i1 %.not, label %15, label %20

15:                                               ; preds = %12
  %16 = load ptr, ptr @spl_ce_RuntimeException, align 8
  %17 = call ptr @zend_throw_exception(ptr noundef %16, ptr noundef nonnull @.str.4, i64 noundef 0) #14
  %18 = load ptr, ptr getelementptr inbounds (%struct._zend_executor_globals, ptr @executor_globals, i64 0, i32 50), align 8
  %19 = icmp ne ptr %18, null
  call void @llvm.assume(i1 %19)
  br label %25

20:                                               ; preds = %12
  %21 = load ptr, ptr %4, align 8
  %22 = trunc i64 %14 to i32
  %23 = getelementptr inbounds i8, ptr %21, i64 -24
  store i32 %22, ptr %23, align 8
  store i64 %14, ptr %1, align 8
  %24 = getelementptr inbounds i8, ptr %1, i64 8
  store i32 4, ptr %24, align 8
  br label %25

25:                                               ; preds = %20, %15, %9
  ret void
}